target datalayout = "e-m:e-p270:32:32-p271:32:32-p272:64:64-i64:64-i128:128-f80:128-n8:16:32:64-S128"
target triple = "x86_64-unknown-linux-gnu"

%struct.NetClientInfo = type { i32, i64, ptr, ptr, ptr, ptr, ptr, ptr, ptr, ptr, ptr, ptr, ptr, ptr, ptr, ptr, ptr, ptr, ptr, ptr, ptr, ptr, ptr, ptr, ptr, ptr, ptr }
%struct.NetClientState = type { ptr, i32, %union.anon, ptr, ptr, ptr, ptr, [256 x i8], i8, ptr, i32, i8, i32, i32, i8, i8, i8, %union.anon.0 }
%union.anon = type { %struct.QTailQLink }
%struct.QTailQLink = type { ptr, ptr }
%union.anon.0 = type { %struct.QTailQLink }
%struct.VhostVDPAState = type { %struct.NetClientState, %struct.vhost_vdpa, %struct.Notifier, ptr, ptr, ptr, i8, i8, i8 }
%struct.vhost_vdpa = type { i32, i32, i32, i8, i32, %struct.MemoryListener, %struct.vhost_vdpa_iova_range, i64, i8, i8, i8, ptr, ptr, ptr, ptr, ptr, ptr, [1024 x %struct.VhostVDPAHostNotifier], %struct.anon, %struct.IOMMUNotifier }
%struct.MemoryListener = type { ptr, ptr, ptr, ptr, ptr, ptr, ptr, ptr, ptr, ptr, ptr, ptr, ptr, ptr, ptr, ptr, ptr, i32, ptr, ptr, %union.anon.1, %union.anon.2 }
%union.anon.1 = type { %struct.QTailQLink }
%union.anon.2 = type { %struct.QTailQLink }
%struct.vhost_vdpa_iova_range = type { i64, i64 }
%struct.VhostVDPAHostNotifier = type { %struct.MemoryRegion, ptr }
%struct.MemoryRegion = type { %struct.Object, i8, i8, i8, i8, i8, i8, i8, i8, i8, i8, ptr, ptr, ptr, ptr, ptr, ptr, i32, i128, i64, ptr, i64, i8, i8, i8, i8, i8, ptr, i64, i32, %union.anon.3, %union.anon.4, %union.anon.5, ptr, i32, ptr, ptr, i8 }
%struct.Object = type { ptr, ptr, ptr, i32, ptr }
%union.anon.3 = type { %struct.QTailQLink }
%union.anon.4 = type { %struct.QTailQLink }
%union.anon.5 = type { %struct.QTailQLink }
%struct.anon = type { ptr }
%struct.IOMMUNotifier = type { ptr, i32, i64, i64, i32, %struct.anon.6 }
%struct.anon.6 = type { ptr, ptr }
%struct.Notifier = type { ptr, %struct.anon.7 }
%struct.anon.7 = type { ptr, ptr }

; Function Attrs: nounwind sspstrong uwtable
define internal i64 @qemu_real_host_page_size() #0 {
entry:
  %call = call i32 @getpagesize() #11
  %conv = sext i32 %call to i64
  ret i64 %conv
}

; Function Attrs: nounwind sspstrong uwtable
define internal i64 @vhost_vdpa_net_cvq_cmd_len() #0 {
entry:
  ret i64 394
}

; Function Attrs: nounwind sspstrong uwtable
define internal i64 @vhost_vdpa_net_cvq_cmd_page_len() #0 {
entry:
  %call = call i64 @vhost_vdpa_net_cvq_cmd_len()
  %call1 = call i64 @qemu_real_host_page_size()
  %add = add i64 %call, %call1
  %sub = sub i64 %add, 1
  %call2 = call i64 @qemu_real_host_page_size()
  %sub3 = sub i64 0, %call2
  %and = and i64 %sub, %sub3
  ret i64 %and
}

; Function Attrs: nounwind sspstrong uwtable
define internal void @vhost_vdpa_cleanup(ptr noundef %nc) #0 {
entry:
  %nc.addr = alloca ptr, align 8
  %s = alloca ptr, align 8
  %tmp = alloca ptr, align 8
  %__mptr = alloca ptr, align 8
  %tmp1 = alloca ptr, align 8
  store ptr %nc, ptr %nc.addr, align 8
  %0 = load ptr, ptr %nc.addr, align 8
  store ptr %0, ptr %__mptr, align 8
  %1 = load ptr, ptr %__mptr, align 8
  %add.ptr = getelementptr i8, ptr %1, i64 0
  store ptr %add.ptr, ptr %tmp1, align 8
  %2 = load ptr, ptr %tmp1, align 8
  store ptr %2, ptr %tmp, align 8
  %3 = load ptr, ptr %tmp, align 8
  store ptr %3, ptr %s, align 8
  %4 = load ptr, ptr %nc.addr, align 8
  %peer = getelementptr inbounds %struct.NetClientState, ptr %4, i32 0, i32 3
  %5 = load ptr, ptr %peer, align 8
  %tobool = icmp ne ptr %5, null
  br i1 %tobool, label %land.lhs.true, label %if.end

land.lhs.true:                                    ; preds = %entry
  %6 = load ptr, ptr %nc.addr, align 8
  %peer2 = getelementptr inbounds %struct.NetClientState, ptr %6, i32 0, i32 3
  %7 = load ptr, ptr %peer2, align 8
  %info = getelementptr inbounds %struct.NetClientState, ptr %7, i32 0, i32 0
  %8 = load ptr, ptr %info, align 8
  %type = getelementptr inbounds %struct.NetClientInfo, ptr %8, i32 0, i32 0
  %9 = load i32, ptr %type, align 8
  %cmp = icmp eq i32 %9, 1
  br i1 %cmp, label %if.then, label %if.end

if.then:                                          ; preds = %land.lhs.true
  br label %if.end19

if.end:                                           ; preds = %land.lhs.true, %entry
  %10 = load ptr, ptr %s, align 8
  %cvq_cmd_out_buffer = getelementptr inbounds %struct.VhostVDPAState, ptr %10, i32 0, i32 4
  %11 = load ptr, ptr %cvq_cmd_out_buffer, align 16
  %call = call i64 @vhost_vdpa_net_cvq_cmd_page_len()
  %call3 = call i32 @munmap(ptr noundef %11, i64 noundef %call) #12
  %12 = load ptr, ptr %s, align 8
  %status = getelementptr inbounds %struct.VhostVDPAState, ptr %12, i32 0, i32 5
  %13 = load ptr, ptr %status, align 8
  %call4 = call i64 @vhost_vdpa_net_cvq_cmd_page_len()
  %call5 = call i32 @munmap(ptr noundef %13, i64 noundef %call4) #12
  %14 = load ptr, ptr %s, align 8
  %vhost_net = getelementptr inbounds %struct.VhostVDPAState, ptr %14, i32 0, i32 3
  %15 = load ptr, ptr %vhost_net, align 8
  %tobool6 = icmp ne ptr %15, null
  br i1 %tobool6, label %if.then7, label %if.end11

if.then7:                                         ; preds = %if.end
  %16 = load ptr, ptr %s, align 8
  %vhost_net8 = getelementptr inbounds %struct.VhostVDPAState, ptr %16, i32 0, i32 3
  %17 = load ptr, ptr %vhost_net8, align 8
  call void @vhost_net_cleanup(ptr noundef %17)
  %18 = load ptr, ptr %s, align 8
  %vhost_net9 = getelementptr inbounds %struct.VhostVDPAState, ptr %18, i32 0, i32 3
  %19 = load ptr, ptr %vhost_net9, align 8
  call void @g_free(ptr noundef %19)
  %20 = load ptr, ptr %s, align 8
  %vhost_net10 = getelementptr inbounds %struct.VhostVDPAState, ptr %20, i32 0, i32 3
  store ptr null, ptr %vhost_net10, align 8
  br label %if.end11

if.end11:                                         ; preds = %if.then7, %if.end
  %21 = load ptr, ptr %s, align 8
  %vhost_vdpa = getelementptr inbounds %struct.VhostVDPAState, ptr %21, i32 0, i32 1
  %device_fd = getelementptr inbounds %struct.vhost_vdpa, ptr %vhost_vdpa, i32 0, i32 0
  %22 = load i32, ptr %device_fd, align 16
  %cmp12 = icmp sge i32 %22, 0
  br i1 %cmp12, label %if.then13, label %if.end19

if.then13:                                        ; preds = %if.end11
  %23 = load ptr, ptr %s, align 8
  %vhost_vdpa14 = getelementptr inbounds %struct.VhostVDPAState, ptr %23, i32 0, i32 1
  %device_fd15 = getelementptr inbounds %struct.vhost_vdpa, ptr %vhost_vdpa14, i32 0, i32 0
  %24 = load i32, ptr %device_fd15, align 16
  %call16 = call i32 @qemu_close(i32 noundef %24)
  %25 = load ptr, ptr %s, align 8
  %vhost_vdpa17 = getelementptr inbounds %struct.VhostVDPAState, ptr %25, i32 0, i32 1
  %device_fd18 = getelementptr inbounds %struct.vhost_vdpa, ptr %vhost_vdpa17, i32 0, i32 0
  store i32 -1, ptr %device_fd18, align 16
  br label %if.end19

if.end19:                                         ; preds = %if.then13, %if.end11, %if.then
  ret void
}