; Function Attrs: nounwind sspstrong uwtable
define internal void @vhost_vdpa_cleanup(ptr noundef captures(none) %nc) #0 {
entry:
  %peer = getelementptr inbounds nuw i8, ptr %nc, i64 32
  %0 = load ptr, ptr %peer, align 8
  %tobool.not = icmp eq ptr %0, null
  br i1 %tobool.not, label %if.end, label %land.lhs.true

land.lhs.true:                                    ; preds = %entry
  %1 = load ptr, ptr %0, align 8
  %2 = load i32, ptr %1, align 8
  %cmp = icmp eq i32 %2, 1
  br i1 %cmp, label %if.end19, label %if.end

if.end:                                           ; preds = %land.lhs.true, %entry
  %cvq_cmd_out_buffer = getelementptr inbounds nuw i8, ptr %nc, i64 295696
  %3 = load ptr, ptr %cvq_cmd_out_buffer, align 16
  %call.i.i = tail call i32 @getpagesize() #14
  %conv.i.i = sext i32 %call.i.i to i64
  %sub.i = add nsw i64 %conv.i.i, 393
  %sub3.i = sub nsw i64 0, %conv.i.i
  %and.i = and i64 %sub.i, %sub3.i
  %call3 = tail call i32 @munmap(ptr noundef %3, i64 noundef %and.i) #13
  %status = getelementptr inbounds nuw i8, ptr %nc, i64 295704
  %4 = load ptr, ptr %status, align 8
  %call5 = tail call i32 @munmap(ptr noundef %4, i64 noundef %and.i) #13
  %vhost_net = getelementptr inbounds nuw i8, ptr %nc, i64 295688
  %5 = load ptr, ptr %vhost_net, align 8
  %tobool6.not = icmp eq ptr %5, null
  br i1 %tobool6.not, label %if.end11, label %if.then7

if.then7:                                         ; preds = %if.end
  tail call void @vhost_net_cleanup(ptr noundef nonnull %5) #13
  %6 = load ptr, ptr %vhost_net, align 8
  tail call void @g_free(ptr noundef %6) #13
  store ptr null, ptr %vhost_net, align 8
  br label %if.end11

if.end11:                                         ; preds = %if.then7, %if.end
  %vhost_vdpa = getelementptr inbounds nuw i8, ptr %nc, i64 384
  %7 = load i32, ptr %vhost_vdpa, align 16
  %cmp12 = icmp sgt i32 %7, -1
  br i1 %cmp12, label %if.then13, label %if.end19

if.then13:                                        ; preds = %if.end11
  %call16 = tail call i32 @qemu_close(i32 noundef %7) #13
  store i32 -1, ptr %vhost_vdpa, align 16
  br label %if.end19

if.end19:                                         ; preds = %land.lhs.true, %if.then13, %if.end11
  ret void
}